; Function Attrs: mustprogress uwtable
define void @_ZNK5faiss16ProductQuantizer24compute_inner_prod_tableEPKfPf(ptr nocapture noundef nonnull readonly align 8 dereferenceable(208) %0, ptr noundef %1, ptr noundef %2) local_unnamed_addr #0 align 2 {
  %4 = getelementptr inbounds i8, ptr %0, i64 24
  %5 = load i64, ptr %4, align 8
  %.not = icmp eq i64 %5, 0
  br i1 %.not, label %._crit_edge, label %.lr.ph

.lr.ph:                                           ; preds = %3
  %6 = getelementptr inbounds i8, ptr %0, i64 48
  %7 = getelementptr inbounds i8, ptr %0, i64 40
  %8 = getelementptr inbounds i8, ptr %0, i64 112
  br label %9

9:                                                ; preds = %.lr.ph, %9
  %.07 = phi i64 [ 0, %.lr.ph ], [ %19, %9 ]
  %10 = load i64, ptr %6, align 8
  %11 = mul i64 %10, %.07
  %12 = getelementptr inbounds float, ptr %2, i64 %11
  %13 = load i64, ptr %7, align 8
  %14 = mul i64 %13, %.07
  %15 = getelementptr inbounds float, ptr %1, i64 %14
  %16 = mul i64 %11, %13
  %17 = load ptr, ptr %8, align 8
  %18 = getelementptr inbounds float, ptr %17, i64 %16
  tail call void @_ZN5faiss22fvec_inner_products_nyEPfPKfS2_mm(ptr noundef %12, ptr noundef %15, ptr noundef %18, i64 noundef %13, i64 noundef %10)
  %19 = add nuw i64 %.07, 1
  %20 = load i64, ptr %4, align 8
  %21 = icmp ult i64 %19, %20
  br i1 %21, label %9, label %._crit_edge, !llvm.loop !44

._crit_edge:                                      ; preds = %9, %3
  ret void
}